; Function Attrs: mustprogress uwtable
define void @_ZN3zmq23stream_connecter_base_t5closeEv(ptr noundef nonnull align 8 dereferenceable(1544) %0) local_unnamed_addr #0 align 2 personality ptr @__gxx_personality_v0 {
  %2 = alloca %"struct.zmq::endpoint_uri_pair_t", align 8
  %3 = getelementptr inbounds nuw i8, ptr %0, i64 1472
  %4 = load i32, ptr %3, align 8, !tbaa !67
  %.not = icmp eq i32 %4, -1
  br i1 %.not, label %36, label %5

5:                                                ; preds = %1
  %6 = tail call i32 @close(i32 noundef %4)
  %.not5 = icmp eq i32 %6, 0
  br i1 %.not5, label %15, label %7, !prof !83

7:                                                ; preds = %5
  %8 = tail call ptr @__errno_location() #24
  %9 = load i32, ptr %8, align 4, !tbaa !86
  %10 = tail call ptr @strerror(i32 noundef %9) #22
  %11 = load ptr, ptr @stderr, align 8, !tbaa !78
  %12 = tail call i32 (ptr, ptr, ...) @fprintf(ptr noundef %11, ptr noundef nonnull @.str.6, ptr noundef %10, ptr noundef nonnull @.str.2, i32 noundef 131) #20
  %13 = load ptr, ptr @stderr, align 8, !tbaa !78
  %14 = tail call i32 @fflush(ptr noundef %13)
  tail call void @_ZN3zmq9zmq_abortEPKc(ptr noundef %10)
  br label %15

15:                                               ; preds = %7, %5
  %16 = getelementptr inbounds nuw i8, ptr %0, i64 1520
  %17 = load ptr, ptr %16, align 8, !tbaa !72
  call void @llvm.lifetime.start.p0(i64 72, ptr nonnull %2) #22
  %18 = getelementptr inbounds nuw i8, ptr %0, i64 1488
  call void @_ZN3zmq38make_unconnected_connect_endpoint_pairERKNSt7__cxx1112basic_stringIcSt11char_traitsIcESaIcEEE(ptr dead_on_unwind nonnull writable sret(%"struct.zmq::endpoint_uri_pair_t") align 8 %2, ptr noundef nonnull align 8 dereferenceable(32) %18)
  %19 = load i32, ptr %3, align 8, !tbaa !67
  invoke void @_ZN3zmq13socket_base_t12event_closedERKNS_19endpoint_uri_pair_tEi(ptr noundef nonnull align 8 dereferenceable(1825) %17, ptr noundef nonnull align 8 dereferenceable(68) %2, i32 noundef %19)
          to label %20 unwind label %34

20:                                               ; preds = %15
  %21 = getelementptr inbounds nuw i8, ptr %2, i64 32
  %22 = load ptr, ptr %21, align 8, !tbaa !80
  %23 = getelementptr inbounds nuw i8, ptr %2, i64 48
  %24 = icmp eq ptr %22, %23
  br i1 %24, label %_ZNKSt7__cxx1112basic_stringIcSt11char_traitsIcESaIcEE11_M_is_localEv.exit.thread.i.i.i, label %_ZNKSt7__cxx1112basic_stringIcSt11char_traitsIcESaIcEE11_M_is_localEv.exit.i.i.i

_ZNKSt7__cxx1112basic_stringIcSt11char_traitsIcESaIcEE11_M_is_localEv.exit.thread.i.i.i: ; preds = %20
  %25 = getelementptr inbounds nuw i8, ptr %2, i64 40
  %26 = load i64, ptr %25, align 8, !tbaa !70
  %27 = icmp ult i64 %26, 16
  call void @llvm.assume(i1 %27)
  br label %_ZNSt7__cxx1112basic_stringIcSt11char_traitsIcESaIcEED2Ev.exit.i

_ZNKSt7__cxx1112basic_stringIcSt11char_traitsIcESaIcEE11_M_is_localEv.exit.i.i.i: ; preds = %20
  call void @_ZdlPv(ptr noundef %22) #21
  br label %_ZNSt7__cxx1112basic_stringIcSt11char_traitsIcESaIcEED2Ev.exit.i

_ZNSt7__cxx1112basic_stringIcSt11char_traitsIcESaIcEED2Ev.exit.i: ; preds = %_ZNKSt7__cxx1112basic_stringIcSt11char_traitsIcESaIcEE11_M_is_localEv.exit.i.i.i, %_ZNKSt7__cxx1112basic_stringIcSt11char_traitsIcESaIcEE11_M_is_localEv.exit.thread.i.i.i
  %28 = load ptr, ptr %2, align 8, !tbaa !80
  %29 = getelementptr inbounds nuw i8, ptr %2, i64 16
  %30 = icmp eq ptr %28, %29
  br i1 %30, label %_ZNKSt7__cxx1112basic_stringIcSt11char_traitsIcESaIcEE11_M_is_localEv.exit.thread.i.i2.i, label %_ZNKSt7__cxx1112basic_stringIcSt11char_traitsIcESaIcEE11_M_is_localEv.exit.i.i1.i

_ZNKSt7__cxx1112basic_stringIcSt11char_traitsIcESaIcEE11_M_is_localEv.exit.thread.i.i2.i: ; preds = %_ZNSt7__cxx1112basic_stringIcSt11char_traitsIcESaIcEED2Ev.exit.i
  %31 = getelementptr inbounds nuw i8, ptr %2, i64 8
  %32 = load i64, ptr %31, align 8, !tbaa !70
  %33 = icmp ult i64 %32, 16
  call void @llvm.assume(i1 %33)
  br label %_ZN3zmq19endpoint_uri_pair_tD2Ev.exit

_ZNKSt7__cxx1112basic_stringIcSt11char_traitsIcESaIcEE11_M_is_localEv.exit.i.i1.i: ; preds = %_ZNSt7__cxx1112basic_stringIcSt11char_traitsIcESaIcEED2Ev.exit.i
  call void @_ZdlPv(ptr noundef %28) #21
  br label %_ZN3zmq19endpoint_uri_pair_tD2Ev.exit

_ZN3zmq19endpoint_uri_pair_tD2Ev.exit:            ; preds = %_ZNKSt7__cxx1112basic_stringIcSt11char_traitsIcESaIcEE11_M_is_localEv.exit.thread.i.i2.i, %_ZNKSt7__cxx1112basic_stringIcSt11char_traitsIcESaIcEE11_M_is_localEv.exit.i.i1.i
  call void @llvm.lifetime.end.p0(i64 72, ptr nonnull %2) #22
  store i32 -1, ptr %3, align 8, !tbaa !67
  br label %36

34:                                               ; preds = %15
  %35 = landingpad { ptr, i32 }
          cleanup
  call void @_ZN3zmq19endpoint_uri_pair_tD2Ev(ptr noundef nonnull align 8 dereferenceable(68) %2) #22
  call void @llvm.lifetime.end.p0(i64 72, ptr nonnull %2) #22
  resume { ptr, i32 } %35

36:                                               ; preds = %_ZN3zmq19endpoint_uri_pair_tD2Ev.exit, %1
  ret void
}